SF:/home/scott/code/covrs/src/cli.rs
FN:105,_RNCNvNtCsdrsuGOUfnGV_5covrs3cli9cmd_files0B5_
FN:136,_RNCNvNtCsdrsuGOUfnGV_5covrs3cli9cmd_lines0B5_
FN:25,_RNvMNtCsdrsuGOUfnGV_5covrs3cliNtB2_5Style9formatter
FN:33,_RNvNtCsdrsuGOUfnGV_5covrs3cli10cmd_ingest
FN:87,_RNvNtCsdrsuGOUfnGV_5covrs3cli11cmd_reports
FN:51,_RNvNtCsdrsuGOUfnGV_5covrs3cli11cmd_summary
FN:173,_RNvNtCsdrsuGOUfnGV_5covrs3cli17cmd_diff_coverage
FN:101,_RNvNtCsdrsuGOUfnGV_5covrs3cli9cmd_files
FN:132,_RNvNtCsdrsuGOUfnGV_5covrs3cli9cmd_lines
FN:207,_RNvNtNtCsfvMbbOWyruA_5covrs3cli5tests13seed_coverage
FN:198,_RNvNtNtCsfvMbbOWyruA_5covrs3cli5tests7test_db
FN:293,_RNvNtNtCsfvMbbOWyruA_5covrs3cli5testss_14test_cmd_files
FN:320,_RNvNtNtCsfvMbbOWyruA_5covrs3cli5testss_14test_cmd_lines
FN:456,_RNvNtNtCsfvMbbOWyruA_5covrs3cli5testss_15test_cmd_ingest
FN:272,_RNvNtNtCsfvMbbOWyruA_5covrs3cli5testss_16test_cmd_reports
FN:259,_RNvNtNtCsfvMbbOWyruA_5covrs3cli5testss_16test_cmd_summary
FN:333,_RNvNtNtCsfvMbbOWyruA_5covrs3cli5testss_22test_cmd_lines_no_data
FN:284,_RNvNtNtCsfvMbbOWyruA_5covrs3cli5testss_22test_cmd_reports_empty
FN:341,_RNvNtNtCsfvMbbOWyruA_5covrs3cli5testss_24test_cmd_lines_uncovered
FN:363,_RNvNtNtCsfvMbbOWyruA_5covrs3cli5testss_27test_cmd_diff_coverage_text
FN:385,_RNvNtNtCsfvMbbOWyruA_5covrs3cli5testss_31test_cmd_diff_coverage_markdown
FN:408,_RNvNtNtCsfvMbbOWyruA_5covrs3cli5testss_33test_cmd_diff_coverage_empty_diff
FN:306,_RNvNtNtCsfvMbbOWyruA_5covrs3cli5testss_33test_cmd_files_sorted_by_coverage
FN:353,_RNvNtNtCsfvMbbOWyruA_5covrs3cli5testss_36test_cmd_lines_uncovered_all_covered
FN:418,_RNvNtNtCsfvMbbOWyruA_5covrs3cli5testss_39test_cmd_diff_coverage_with_path_prefix
FN:105,_RNCNvNtCsfvMbbOWyruA_5covrs3cli9cmd_files0B5_
FN:136,_RNCNvNtCsfvMbbOWyruA_5covrs3cli9cmd_lines0B5_
FN:25,_RNvMNtCsfvMbbOWyruA_5covrs3cliNtB2_5Style9formatter
FN:33,_RNvNtCsfvMbbOWyruA_5covrs3cli10cmd_ingest
FN:87,_RNvNtCsfvMbbOWyruA_5covrs3cli11cmd_reports
FN:51,_RNvNtCsfvMbbOWyruA_5covrs3cli11cmd_summary
FN:173,_RNvNtCsfvMbbOWyruA_5covrs3cli17cmd_diff_coverage
FN:101,_RNvNtCsfvMbbOWyruA_5covrs3cli9cmd_files
FN:132,_RNvNtCsfvMbbOWyruA_5covrs3cli9cmd_lines
FNDA:0,_RNCNvNtCsdrsuGOUfnGV_5covrs3cli9cmd_files0B5_
FNDA:0,_RNCNvNtCsdrsuGOUfnGV_5covrs3cli9cmd_lines0B5_
FNDA:0,_RNvMNtCsdrsuGOUfnGV_5covrs3cliNtB2_5Style9formatter
FNDA:0,_RNvNtCsdrsuGOUfnGV_5covrs3cli10cmd_ingest
FNDA:0,_RNvNtCsdrsuGOUfnGV_5covrs3cli11cmd_reports
FNDA:0,_RNvNtCsdrsuGOUfnGV_5covrs3cli11cmd_summary
FNDA:0,_RNvNtCsdrsuGOUfnGV_5covrs3cli17cmd_diff_coverage
FNDA:0,_RNvNtCsdrsuGOUfnGV_5covrs3cli9cmd_files
FNDA:0,_RNvNtCsdrsuGOUfnGV_5covrs3cli9cmd_lines
FNDA:10,_RNvNtNtCsfvMbbOWyruA_5covrs3cli5tests13seed_coverage
FNDA:14,_RNvNtNtCsfvMbbOWyruA_5covrs3cli5tests7test_db
FNDA:1,_RNvNtNtCsfvMbbOWyruA_5covrs3cli5testss_14test_cmd_files
FNDA:1,_RNvNtNtCsfvMbbOWyruA_5covrs3cli5testss_14test_cmd_lines
FNDA:1,_RNvNtNtCsfvMbbOWyruA_5covrs3cli5testss_15test_cmd_ingest
FNDA:1,_RNvNtNtCsfvMbbOWyruA_5covrs3cli5testss_16test_cmd_reports
FNDA:1,_RNvNtNtCsfvMbbOWyruA_5covrs3cli5testss_16test_cmd_summary
FNDA:1,_RNvNtNtCsfvMbbOWyruA_5covrs3cli5testss_22test_cmd_lines_no_data
FNDA:1,_RNvNtNtCsfvMbbOWyruA_5covrs3cli5testss_22test_cmd_reports_empty
FNDA:1,_RNvNtNtCsfvMbbOWyruA_5covrs3cli5testss_24test_cmd_lines_uncovered
FNDA:1,_RNvNtNtCsfvMbbOWyruA_5covrs3cli5testss_27test_cmd_diff_coverage_text
FNDA:1,_RNvNtNtCsfvMbbOWyruA_5covrs3cli5testss_31test_cmd_diff_coverage_markdown
FNDA:1,_RNvNtNtCsfvMbbOWyruA_5covrs3cli5testss_33test_cmd_diff_coverage_empty_diff
FNDA:1,_RNvNtNtCsfvMbbOWyruA_5covrs3cli5testss_33test_cmd_files_sorted_by_coverage
FNDA:1,_RNvNtNtCsfvMbbOWyruA_5covrs3cli5testss_36test_cmd_lines_uncovered_all_covered
FNDA:1,_RNvNtNtCsfvMbbOWyruA_5covrs3cli5testss_39test_cmd_diff_coverage_with_path_prefix
FNDA:1,_RNCNvNtCsfvMbbOWyruA_5covrs3cli9cmd_files0B5_
FNDA:6,_RNCNvNtCsfvMbbOWyruA_5covrs3cli9cmd_lines0B5_
FNDA:4,_RNvMNtCsfvMbbOWyruA_5covrs3cliNtB2_5Style9formatter
FNDA:1,_RNvNtCsfvMbbOWyruA_5covrs3cli10cmd_ingest
FNDA:2,_RNvNtCsfvMbbOWyruA_5covrs3cli11cmd_reports
FNDA:1,_RNvNtCsfvMbbOWyruA_5covrs3cli11cmd_summary
FNDA:4,_RNvNtCsfvMbbOWyruA_5covrs3cli17cmd_diff_coverage
FNDA:2,_RNvNtCsfvMbbOWyruA_5covrs3cli9cmd_files
FNDA:4,_RNvNtCsfvMbbOWyruA_5covrs3cli9cmd_lines
FNF:25
FNH:25
DA:25,4
DA:26,4
DA:27,3
DA:28,1
DA:30,4
DA:33,1
DA:34,1
DA:35,1
DA:36,1
DA:37,1
DA:38,1
DA:39,1
DA:40,1
DA:41,1
DA:42,1
DA:43,1
DA:44,1
DA:45,1
DA:46,1
DA:47,1
DA:48,1
DA:49,1
DA:51,1
DA:52,1
DA:54,1
DA:55,1
DA:56,1
DA:57,1
DA:61,1
DA:63,1
DA:64,1
DA:65,0
DA:66,0
DA:67,0
DA:68,0
DA:69,0
DA:70,0
DA:71,0
DA:72,0
DA:73,1
DA:74,1
DA:75,1
DA:76,1
DA:77,1
DA:78,1
DA:79,1
DA:80,1
DA:81,1
DA:82,1
DA:83,1
DA:84,1
DA:85,1
DA:87,2
DA:88,2
DA:89,2
DA:90,1
DA:91,1
DA:92,1
DA:93,1
DA:94,1
DA:95,1
DA:96,1
DA:97,1
DA:98,1
DA:99,2
DA:101,2
DA:102,2
DA:104,2
DA:105,1
DA:106,1
DA:108,2
DA:109,2
DA:110,2
DA:114,2
DA:115,2
DA:117,4
DA:118,4
DA:119,4
DA:120,4
DA:121,4
DA:122,4
DA:123,4
DA:124,4
DA:125,4
DA:126,4
DA:127,4
DA:129,2
DA:130,2
DA:132,4
DA:133,4
DA:135,3
DA:136,6
DA:138,2
DA:139,1
DA:140,1
DA:141,1
DA:142,1
DA:144,1
DA:145,1
DA:146,1
DA:147,1
DA:148,1
DA:149,1
DA:150,1
DA:151,1
DA:152,1
DA:153,0
DA:155,1
DA:156,1
DA:157,1
DA:158,4
DA:159,4
DA:160,4
DA:161,4
DA:165,4
DA:167,1
DA:169,4
DA:173,4
DA:174,4
DA:175,4
DA:176,4
DA:177,4
DA:178,4
DA:179,4
DA:180,4
DA:182,4
DA:183,1
DA:184,3
DA:186,4
DA:187,4
DA:189,4
DA:190,4
DA:198,14
DA:199,14
DA:200,14
DA:201,14
DA:202,14
DA:203,14
DA:207,10
DA:208,10
DA:209,10
DA:210,10
DA:211,10
DA:212,10
DA:213,10
DA:214,10
DA:215,10
DA:216,10
DA:217,10
DA:218,10
DA:219,10
DA:220,10
DA:221,10
DA:222,10
DA:223,10
DA:224,10
DA:225,10
DA:226,10
DA:227,10
DA:228,10
DA:229,10
DA:230,10
DA:231,10
DA:232,10
DA:233,10
DA:234,10
DA:235,10
DA:236,10
DA:237,10
DA:238,10
DA:239,10
DA:240,10
DA:241,10
DA:242,10
DA:243,10
DA:244,10
DA:245,10
DA:246,10
DA:247,10
DA:248,10
DA:249,10
DA:250,10
DA:251,10
DA:252,10
DA:253,10
DA:254,10
DA:255,10
DA:256,10
DA:259,1
DA:260,1
DA:261,1
DA:263,1
DA:265,1
DA:266,1
DA:267,1
DA:268,1
DA:269,1
DA:272,1
DA:273,1
DA:274,1
DA:276,1
DA:278,1
DA:279,1
DA:280,1
DA:281,1
DA:284,1
DA:285,1
DA:287,1
DA:289,1
DA:290,1
DA:293,1
DA:294,1
DA:295,1
DA:297,1
DA:299,1
DA:300,1
DA:301,1
DA:302,1
DA:303,1
DA:306,1
DA:307,1
DA:308,1
DA:310,1
DA:314,1
DA:315,1
DA:316,1
DA:317,1
DA:320,1
DA:321,1
DA:322,1
DA:324,1
DA:326,1
DA:327,1
DA:328,1
DA:329,1
DA:330,1
DA:333,1
DA:334,1
DA:336,1
DA:337,1
DA:338,1
DA:341,1
DA:342,1
DA:343,1
DA:345,1
DA:347,1
DA:348,1
DA:349,1
DA:350,1
DA:353,1
DA:354,1
DA:355,1
DA:357,1
DA:359,1
DA:360,1
DA:363,1
DA:364,1
DA:365,1
DA:367,1
DA:368,1
DA:369,1
DA:370,1
DA:371,1
DA:372,1
DA:373,1
DA:374,1
DA:375,1
DA:376,1
DA:378,1
DA:380,1
DA:381,1
DA:382,1
DA:385,1
DA:386,1
DA:387,1
DA:389,1
DA:390,1
DA:391,1
DA:392,1
DA:393,1
DA:394,1
DA:395,1
DA:396,1
DA:397,1
DA:398,1
DA:400,1
DA:401,1
DA:403,1
DA:404,1
DA:405,1
DA:408,1
DA:409,1
DA:410,1
DA:412,1
DA:414,1
DA:415,1
DA:418,1
DA:419,1
DA:421,1
DA:422,1
DA:423,1
DA:424,1
DA:425,1
DA:426,1
DA:427,1
DA:428,1
DA:429,1
DA:430,1
DA:431,1
DA:432,1
DA:433,1
DA:434,1
DA:435,1
DA:436,1
DA:437,1
DA:438,1
DA:440,1
DA:441,1
DA:442,1
DA:443,1
DA:444,1
DA:445,1
DA:446,1
DA:447,1
DA:449,1
DA:451,1
DA:452,1
DA:453,1
DA:456,1
DA:457,1
DA:459,1
DA:460,1
DA:461,1
DA:463,1
DA:465,1
DA:466,1
DA:467,1
DA:470,1
DA:471,1
DA:472,1
DA:473,1
BRF:0
BRH:0
LF:343
LH:334
end_of_record
SF:/home/scott/code/covrs/src/db.rs
FN:279,_RNCNvNtCsdrsuGOUfnGV_5covrs2db11get_summary0B5_
FN:308,_RNCNvNtCsdrsuGOUfnGV_5covrs2db11get_summarys0_0B5_
FN:321,_RNCNvNtCsdrsuGOUfnGV_5covrs2db11get_summarys1_0B5_
FN:295,_RNCNvNtCsdrsuGOUfnGV_5covrs2db11get_summarys_0B5_
FN:180,_RNCNvNtCsdrsuGOUfnGV_5covrs2db12list_reports0B5_
FN:364,_RNCNvNtCsdrsuGOUfnGV_5covrs2db18get_file_summaries0B5_
FN:80,_RNCNvNtCsdrsuGOUfnGV_5covrs2db18insert_coverage_tx0B5_
FN:208,_RNCNvNtCsdrsuGOUfnGV_5covrs2db20diff_coverage_detail0B5_
FN:236,_RNCNvNtCsdrsuGOUfnGV_5covrs2db20diff_coverage_details0_0B5_
FN:240,_RNCNvNtCsdrsuGOUfnGV_5covrs2db20diff_coverage_details1_0B5_
FN:271,_RNCNvNtCsdrsuGOUfnGV_5covrs2db20diff_coverage_details2_0B5_
FN:168,_RNCNvNtCsdrsuGOUfnGV_5covrs2db25get_or_insert_source_file0B5_
FN:383,_RNCNvNtCsdrsuGOUfnGV_5covrs2db9get_lines0B5_
FN:395,_RNCNvNtCsdrsuGOUfnGV_5covrs2db9get_liness0_0B5_
FN:385,_RNCNvNtCsdrsuGOUfnGV_5covrs2db9get_liness_0B5_
FN:278,_RNvNtCsdrsuGOUfnGV_5covrs2db11get_summary
FN:25,_RNvNtCsdrsuGOUfnGV_5covrs2db11init_schema
FN:177,_RNvNtCsdrsuGOUfnGV_5covrs2db12list_reports
FN:407,_RNvNtCsdrsuGOUfnGV_5covrs2db13diff_coverage
FN:33,_RNvNtCsdrsuGOUfnGV_5covrs2db15insert_coverage
FN:336,_RNvNtCsdrsuGOUfnGV_5covrs2db18get_file_summaries
FN:67,_RNvNtCsdrsuGOUfnGV_5covrs2db18insert_coverage_tx
FN:196,_RNvNtCsdrsuGOUfnGV_5covrs2db20diff_coverage_detail
FN:155,_RNvNtCsdrsuGOUfnGV_5covrs2db25get_or_insert_source_file
FN:15,_RNvNtCsdrsuGOUfnGV_5covrs2db4open
FN:378,_RNvNtCsdrsuGOUfnGV_5covrs2db9get_lines
FN:407,_RNvNtCsfvMbbOWyruA_5covrs2db13diff_coverage
FN:15,_RNvNtCsfvMbbOWyruA_5covrs2db4open
FN:279,_RNCNvNtCsfvMbbOWyruA_5covrs2db11get_summary0B5_
FN:308,_RNCNvNtCsfvMbbOWyruA_5covrs2db11get_summarys0_0B5_
FN:321,_RNCNvNtCsfvMbbOWyruA_5covrs2db11get_summarys1_0B5_
FN:295,_RNCNvNtCsfvMbbOWyruA_5covrs2db11get_summarys_0B5_
FN:180,_RNCNvNtCsfvMbbOWyruA_5covrs2db12list_reports0B5_
FN:364,_RNCNvNtCsfvMbbOWyruA_5covrs2db18get_file_summaries0B5_
FN:80,_RNCNvNtCsfvMbbOWyruA_5covrs2db18insert_coverage_tx0B5_
FN:208,_RNCNvNtCsfvMbbOWyruA_5covrs2db20diff_coverage_detail0B5_
FN:236,_RNCNvNtCsfvMbbOWyruA_5covrs2db20diff_coverage_details0_0B5_
FN:240,_RNCNvNtCsfvMbbOWyruA_5covrs2db20diff_coverage_details1_0B5_
FN:271,_RNCNvNtCsfvMbbOWyruA_5covrs2db20diff_coverage_details2_0B5_
FN:168,_RNCNvNtCsfvMbbOWyruA_5covrs2db25get_or_insert_source_file0B5_
FN:383,_RNCNvNtCsfvMbbOWyruA_5covrs2db9get_lines0B5_
FN:395,_RNCNvNtCsfvMbbOWyruA_5covrs2db9get_liness0_0B5_
FN:385,_RNCNvNtCsfvMbbOWyruA_5covrs2db9get_liness_0B5_
FN:278,_RNvNtCsfvMbbOWyruA_5covrs2db11get_summary
FN:25,_RNvNtCsfvMbbOWyruA_5covrs2db11init_schema
FN:177,_RNvNtCsfvMbbOWyruA_5covrs2db12list_reports
FN:33,_RNvNtCsfvMbbOWyruA_5covrs2db15insert_coverage
FN:336,_RNvNtCsfvMbbOWyruA_5covrs2db18get_file_summaries
FN:67,_RNvNtCsfvMbbOWyruA_5covrs2db18insert_coverage_tx
FN:196,_RNvNtCsfvMbbOWyruA_5covrs2db20diff_coverage_detail
FN:155,_RNvNtCsfvMbbOWyruA_5covrs2db25get_or_insert_source_file
FN:378,_RNvNtCsfvMbbOWyruA_5covrs2db9get_lines
FNDA:8,_RNCNvNtCsdrsuGOUfnGV_5covrs2db11get_summary0B5_
FNDA:7,_RNCNvNtCsdrsuGOUfnGV_5covrs2db11get_summarys0_0B5_
FNDA:7,_RNCNvNtCsdrsuGOUfnGV_5covrs2db11get_summarys1_0B5_
FNDA:7,_RNCNvNtCsdrsuGOUfnGV_5covrs2db11get_summarys_0B5_
FNDA:3,_RNCNvNtCsdrsuGOUfnGV_5covrs2db12list_reports0B5_
FNDA:2,_RNCNvNtCsdrsuGOUfnGV_5covrs2db18get_file_summaries0B5_
FNDA:2,_RNCNvNtCsdrsuGOUfnGV_5covrs2db18insert_coverage_tx0B5_
FNDA:6,_RNCNvNtCsdrsuGOUfnGV_5covrs2db20diff_coverage_detail0B5_
FNDA:18,_RNCNvNtCsdrsuGOUfnGV_5covrs2db20diff_coverage_details0_0B5_
FNDA:16,_RNCNvNtCsdrsuGOUfnGV_5covrs2db20diff_coverage_details1_0B5_
FNDA:1,_RNCNvNtCsdrsuGOUfnGV_5covrs2db20diff_coverage_details2_0B5_
FNDA:24,_RNCNvNtCsdrsuGOUfnGV_5covrs2db25get_or_insert_source_file0B5_
FNDA:1,_RNCNvNtCsdrsuGOUfnGV_5covrs2db9get_lines0B5_
FNDA:3,_RNCNvNtCsdrsuGOUfnGV_5covrs2db9get_liness0_0B5_
FNDA:0,_RNCNvNtCsdrsuGOUfnGV_5covrs2db9get_liness_0B5_
FNDA:8,_RNvNtCsdrsuGOUfnGV_5covrs2db11get_summary
FNDA:20,_RNvNtCsdrsuGOUfnGV_5covrs2db11init_schema
FNDA:3,_RNvNtCsdrsuGOUfnGV_5covrs2db12list_reports
FNDA:7,_RNvNtCsdrsuGOUfnGV_5covrs2db13diff_coverage
FNDA:23,_RNvNtCsdrsuGOUfnGV_5covrs2db15insert_coverage
FNDA:1,_RNvNtCsdrsuGOUfnGV_5covrs2db18get_file_summaries
FNDA:23,_RNvNtCsdrsuGOUfnGV_5covrs2db18insert_coverage_tx
FNDA:7,_RNvNtCsdrsuGOUfnGV_5covrs2db20diff_coverage_detail
FNDA:24,_RNvNtCsdrsuGOUfnGV_5covrs2db25get_or_insert_source_file
FNDA:20,_RNvNtCsdrsuGOUfnGV_5covrs2db4open
FNDA:1,_RNvNtCsdrsuGOUfnGV_5covrs2db9get_lines
FNDA:0,_RNvNtCsfvMbbOWyruA_5covrs2db13diff_coverage
FNDA:0,_RNvNtCsfvMbbOWyruA_5covrs2db4open
FNDA:5,_RNCNvNtCsfvMbbOWyruA_5covrs2db11get_summary0B5_
FNDA:5,_RNCNvNtCsfvMbbOWyruA_5covrs2db11get_summarys0_0B5_
FNDA:5,_RNCNvNtCsfvMbbOWyruA_5covrs2db11get_summarys1_0B5_
FNDA:5,_RNCNvNtCsfvMbbOWyruA_5covrs2db11get_summarys_0B5_
FNDA:2,_RNCNvNtCsfvMbbOWyruA_5covrs2db12list_reports0B5_
FNDA:4,_RNCNvNtCsfvMbbOWyruA_5covrs2db18get_file_summaries0B5_
FNDA:0,_RNCNvNtCsfvMbbOWyruA_5covrs2db18insert_coverage_tx0B5_
FNDA:3,_RNCNvNtCsfvMbbOWyruA_5covrs2db20diff_coverage_detail0B5_
FNDA:10,_RNCNvNtCsfvMbbOWyruA_5covrs2db20diff_coverage_details0_0B5_
FNDA:10,_RNCNvNtCsfvMbbOWyruA_5covrs2db20diff_coverage_details1_0B5_
FNDA:0,_RNCNvNtCsfvMbbOWyruA_5covrs2db20diff_coverage_details2_0B5_
FNDA:22,_RNCNvNtCsfvMbbOWyruA_5covrs2db25get_or_insert_source_file0B5_
FNDA:3,_RNCNvNtCsfvMbbOWyruA_5covrs2db9get_lines0B5_
FNDA:10,_RNCNvNtCsfvMbbOWyruA_5covrs2db9get_liness0_0B5_
FNDA:1,_RNCNvNtCsfvMbbOWyruA_5covrs2db9get_liness_0B5_
FNDA:5,_RNvNtCsfvMbbOWyruA_5covrs2db11get_summary
FNDA:14,_RNvNtCsfvMbbOWyruA_5covrs2db11init_schema
FNDA:3,_RNvNtCsfvMbbOWyruA_5covrs2db12list_reports
FNDA:12,_RNvNtCsfvMbbOWyruA_5covrs2db15insert_coverage
FNDA:2,_RNvNtCsfvMbbOWyruA_5covrs2db18get_file_summaries
FNDA:12,_RNvNtCsfvMbbOWyruA_5covrs2db18insert_coverage_tx
FNDA:3,_RNvNtCsfvMbbOWyruA_5covrs2db20diff_coverage_detail
FNDA:22,_RNvNtCsfvMbbOWyruA_5covrs2db25get_or_insert_source_file
FNDA:4,_RNvNtCsfvMbbOWyruA_5covrs2db9get_lines
FNF:26
FNH:26
DA:15,20
DA:16,20
DA:17,20
DA:18,20
DA:19,20
DA:20,20
DA:21,20
DA:22,20
DA:25,34
DA:26,34
DA:27,34
DA:28,34
DA:33,35
DA:34,35
DA:35,35
DA:36,35
DA:37,35
DA:38,35
DA:39,35
DA:40,35
DA:41,35
DA:43,35
DA:44,1
DA:45,34
DA:47,35
DA:49,33
DA:51,1
DA:52,1
DA:53,1
DA:54,1
DA:55,1
DA:56,1
DA:57,1
DA:58,1
DA:59,1
DA:60,1
DA:61,32
DA:63,33
DA:64,33
DA:65,35
DA:67,35
DA:68,35
DA:69,35
DA:70,35
DA:71,35
DA:72,35
DA:73,35
DA:74,35
DA:76,35
DA:77,35
DA:78,35
DA:79,35
DA:80,35
DA:81,2
DA:82,2
DA:84,2
DA:88,0
DA:89,2
DA:90,33
DA:93,33
DA:95,46
DA:96,46
DA:100,46
DA:101,46
DA:102,46
DA:103,46
DA:104,142
DA:105,142
DA:106,142
DA:107,142
DA:108,142
DA:109,142
DA:110,142
DA:116,46
DA:117,46
DA:118,46
DA:119,46
DA:120,46
DA:121,4
DA:122,4
DA:123,4
DA:124,4
DA:125,4
DA:126,4
DA:127,4
DA:133,46
DA:134,46
DA:135,46
DA:136,46
DA:137,46
DA:138,46
DA:139,46
DA:140,14
DA:141,14
DA:142,14
DA:143,14
DA:144,14
DA:145,14
DA:146,14
DA:147,14
DA:152,33
DA:153,35
DA:155,46
DA:156,46
DA:157,46
DA:158,46
DA:159,46
DA:160,46
DA:161,0
DA:162,46
DA:163,46
DA:164,46
DA:165,46
DA:166,46
DA:167,46
DA:168,46
DA:169,0
DA:170,46
DA:171,46
DA:172,46
DA:177,6
DA:178,6
DA:179,6
DA:180,6
DA:182,5
DA:183,5
DA:184,5
DA:186,5
DA:187,6
DA:188,6
DA:196,10
DA:197,10
DA:198,10
DA:199,10
DA:200,10
DA:201,10
DA:202,10
DA:204,10
DA:205,10
DA:206,10
DA:207,10
DA:208,9
DA:210,9
DA:211,1
DA:214,9
DA:215,0
DA:216,9
DA:218,9
DA:219,9
DA:222,9
DA:223,9
DA:224,9
DA:229,9
DA:231,9
DA:232,9
DA:233,9
DA:234,9
DA:235,9
DA:236,28
DA:238,9
DA:240,26
DA:241,26
DA:242,26
DA:244,26
DA:245,26
DA:246,26
DA:247,14
DA:248,14
DA:249,12
DA:250,12
DA:254,9
DA:255,0
DA:256,9
DA:258,9
DA:259,9
DA:261,9
DA:262,9
DA:264,9
DA:265,9
DA:266,9
DA:267,9
DA:268,9
DA:271,10
DA:273,10
DA:274,10
DA:278,13
DA:279,13
DA:280,13
DA:281,1
DA:282,12
DA:284,12
DA:285,12
DA:286,12
DA:287,12
DA:288,12
DA:289,12
DA:290,12
DA:291,12
DA:292,12
DA:293,12
DA:294,12
DA:295,12
DA:296,0
DA:298,12
DA:299,12
DA:300,12
DA:301,12
DA:302,12
DA:303,12
DA:304,12
DA:305,12
DA:306,12
DA:307,12
DA:308,12
DA:309,0
DA:311,12
DA:312,12
DA:313,12
DA:314,12
DA:315,12
DA:316,12
DA:317,12
DA:318,12
DA:319,12
DA:320,12
DA:321,12
DA:322,0
DA:324,12
DA:325,12
DA:326,12
DA:327,12
DA:328,12
DA:329,12
DA:330,12
DA:331,12
DA:332,12
DA:333,13
DA:336,3
DA:337,3
DA:338,3
DA:339,3
DA:340,3
DA:341,3
DA:342,3
DA:343,3
DA:344,3
DA:345,3
DA:346,3
DA:347,3
DA:348,3
DA:349,3
DA:350,3
DA:351,3
DA:352,3
DA:353,3
DA:354,3
DA:355,3
DA:356,3
DA:357,3
DA:358,3
DA:359,3
DA:360,3
DA:361,3
DA:362,0
DA:364,6
DA:366,6
DA:367,6
DA:368,6
DA:369,6
DA:370,6
DA:372,6
DA:374,3
DA:375,3
DA:378,5
DA:379,5
DA:380,5
DA:381,5
DA:382,5
DA:383,4
DA:385,5
DA:387,4
DA:388,4
DA:389,4
DA:390,4
DA:391,4
DA:392,4
DA:393,0
DA:395,13
DA:397,13
DA:398,13
DA:400,13
DA:402,4
DA:403,5
DA:407,7
DA:408,7
DA:409,7
DA:410,7
DA:411,7
DA:412,7
DA:413,7
BRF:0
BRH:0
LF:314
LH:300
end_of_record
SF:/home/scott/code/covrs/src/diff.rs
FN:24,_RNvYNtNtCsdrsuGOUfnGV_5covrs4diff7GitDiffNtB4_10DiffSource3shaCsdahSd4mMg5c_5covrs
FN:24,_RNvYNtNtCsdrsuGOUfnGV_5covrs4diff9StdinDiffNtB4_10DiffSource3shaCsdahSd4mMg5c_5covrs
FN:76,_RNvMs0_NtCsdrsuGOUfnGV_5covrs4diffNtB5_10GitHubDiff12post_comment
FN:70,_RNvMs0_NtCsdrsuGOUfnGV_5covrs4diffNtB5_10GitHubDiff8from_env
FN:109,_RNvNtCsdrsuGOUfnGV_5covrs4diff10parse_diff
FN:96,_RNvNtCsdrsuGOUfnGV_5covrs4diff17apply_path_prefix
FN:155,_RNvNtCsdrsuGOUfnGV_5covrs4diff17parse_hunk_header
FN:33,_RNvXNtCsdrsuGOUfnGV_5covrs4diffNtB2_9StdinDiffNtB2_10DiffSource10fetch_diff
FN:82,_RNvXs1_NtCsdrsuGOUfnGV_5covrs4diffNtB5_10GitHubDiffNtB5_10DiffSource10fetch_diff
FN:86,_RNvXs1_NtCsdrsuGOUfnGV_5covrs4diffNtB5_10GitHubDiffNtB5_10DiffSource3sha
FN:45,_RNvXs_NtCsdrsuGOUfnGV_5covrs4diffNtB4_7GitDiffNtB4_10DiffSource10fetch_diff
FN:123,_RNCNvNtCsdrsuGOUfnGV_5covrs4diff10parse_diff0B5_
FN:103,_RNCNvNtCsdrsuGOUfnGV_5covrs4diff17apply_path_prefix0B5_
FN:123,_RNCNvNtCsfvMbbOWyruA_5covrs4diff10parse_diff0B5_
FN:103,_RNCNvNtCsfvMbbOWyruA_5covrs4diff17apply_path_prefix0B5_
FN:109,_RNvNtCsfvMbbOWyruA_5covrs4diff10parse_diff
FN:96,_RNvNtCsfvMbbOWyruA_5covrs4diff17apply_path_prefix
FN:155,_RNvNtCsfvMbbOWyruA_5covrs4diff17parse_hunk_header
FN:76,_RNvMs0_NtCsfvMbbOWyruA_5covrs4diffNtB5_10GitHubDiff12post_comment
FN:70,_RNvMs0_NtCsfvMbbOWyruA_5covrs4diffNtB5_10GitHubDiff8from_env
FN:33,_RNvXNtCsfvMbbOWyruA_5covrs4diffNtB2_9StdinDiffNtB2_10DiffSource10fetch_diff
FN:82,_RNvXs1_NtCsfvMbbOWyruA_5covrs4diffNtB5_10GitHubDiffNtB5_10DiffSource10fetch_diff
FN:86,_RNvXs1_NtCsfvMbbOWyruA_5covrs4diffNtB5_10GitHubDiffNtB5_10DiffSource3sha
FN:45,_RNvXs_NtCsfvMbbOWyruA_5covrs4diffNtB4_7GitDiffNtB4_10DiffSource10fetch_diff
FN:24,_RNvYpNtNtCsfvMbbOWyruA_5covrs4diff10DiffSource3shaB7_
FN:183,_RNvNtNtCsfvMbbOWyruA_5covrs4diff5testss_15test_parse_diff
FN:176,_RNvNtNtCsfvMbbOWyruA_5covrs4diff5testss_22test_parse_hunk_header
FN:193,_RNvNtNtCsfvMbbOWyruA_5covrs4diff5testss_24test_parse_diff_new_file
FN:201,_RNvNtNtCsfvMbbOWyruA_5covrs4diff5testss_28test_parse_diff_deleted_file
FN:219,_RNvNtNtCsfvMbbOWyruA_5covrs4diff5testss_30test_parse_diff_multiple_files
FN:208,_RNvNtNtCsfvMbbOWyruA_5covrs4diff5testss_33test_parse_diff_no_newline_at_eof
FNDA:0,_RNvYNtNtCsdrsuGOUfnGV_5covrs4diff7GitDiffNtB4_10DiffSource3shaCsdahSd4mMg5c_5covrs
FNDA:0,_RNvYNtNtCsdrsuGOUfnGV_5covrs4diff9StdinDiffNtB4_10DiffSource3shaCsdahSd4mMg5c_5covrs
FNDA:0,_RNvMs0_NtCsdrsuGOUfnGV_5covrs4diffNtB5_10GitHubDiff12post_comment
FNDA:0,_RNvMs0_NtCsdrsuGOUfnGV_5covrs4diffNtB5_10GitHubDiff8from_env
FNDA:1,_RNvNtCsdrsuGOUfnGV_5covrs4diff10parse_diff
FNDA:0,_RNvNtCsdrsuGOUfnGV_5covrs4diff17apply_path_prefix
FNDA:1,_RNvNtCsdrsuGOUfnGV_5covrs4diff17parse_hunk_header
FNDA:0,_RNvXNtCsdrsuGOUfnGV_5covrs4diffNtB2_9StdinDiffNtB2_10DiffSource10fetch_diff
FNDA:0,_RNvXs1_NtCsdrsuGOUfnGV_5covrs4diffNtB5_10GitHubDiffNtB5_10DiffSource10fetch_diff
FNDA:0,_RNvXs1_NtCsdrsuGOUfnGV_5covrs4diffNtB5_10GitHubDiffNtB5_10DiffSource3sha
FNDA:0,_RNvXs_NtCsdrsuGOUfnGV_5covrs4diffNtB4_7GitDiffNtB4_10DiffSource10fetch_diff
FNDA:0,_RNCNvNtCsdrsuGOUfnGV_5covrs4diff10parse_diff0B5_
FNDA:0,_RNCNvNtCsdrsuGOUfnGV_5covrs4diff17apply_path_prefix0B5_
FNDA:0,_RNCNvNtCsfvMbbOWyruA_5covrs4diff10parse_diff0B5_
FNDA:1,_RNCNvNtCsfvMbbOWyruA_5covrs4diff17apply_path_prefix0B5_
FNDA:9,_RNvNtCsfvMbbOWyruA_5covrs4diff10parse_diff
FNDA:1,_RNvNtCsfvMbbOWyruA_5covrs4diff17apply_path_prefix
FNDA:12,_RNvNtCsfvMbbOWyruA_5covrs4diff17parse_hunk_header
FNDA:0,_RNvMs0_NtCsfvMbbOWyruA_5covrs4diffNtB5_10GitHubDiff12post_comment
FNDA:0,_RNvMs0_NtCsfvMbbOWyruA_5covrs4diffNtB5_10GitHubDiff8from_env
FNDA:0,_RNvXNtCsfvMbbOWyruA_5covrs4diffNtB2_9StdinDiffNtB2_10DiffSource10fetch_diff
FNDA:0,_RNvXs1_NtCsfvMbbOWyruA_5covrs4diffNtB5_10GitHubDiffNtB5_10DiffSource10fetch_diff
FNDA:0,_RNvXs1_NtCsfvMbbOWyruA_5covrs4diffNtB5_10GitHubDiffNtB5_10DiffSource3sha
FNDA:0,_RNvXs_NtCsfvMbbOWyruA_5covrs4diffNtB4_7GitDiffNtB4_10DiffSource10fetch_diff
FNDA:0,_RNvYpNtNtCsfvMbbOWyruA_5covrs4diff10DiffSource3shaB7_
FNDA:1,_RNvNtNtCsfvMbbOWyruA_5covrs4diff5testss_15test_parse_diff
FNDA:1,_RNvNtNtCsfvMbbOWyruA_5covrs4diff5testss_22test_parse_hunk_header
FNDA:1,_RNvNtNtCsfvMbbOWyruA_5covrs4diff5testss_24test_parse_diff_new_file
FNDA:1,_RNvNtNtCsfvMbbOWyruA_5covrs4diff5testss_28test_parse_diff_deleted_file
FNDA:1,_RNvNtNtCsfvMbbOWyruA_5covrs4diff5testss_30test_parse_diff_multiple_files
FNDA:1,_RNvNtNtCsfvMbbOWyruA_5covrs4diff5testss_33test_parse_diff_no_newline_at_eof
FNF:18
FNH:10
DA:24,0
DA:25,0
DA:26,0
DA:33,0
DA:34,0
DA:35,0
DA:45,0
DA:46,0
DA:47,0
DA:48,0
DA:49,0
DA:50,0
DA:51,0
DA:53,0
DA:54,0
DA:55,0
DA:56,0
DA:58,0
DA:59,0
DA:70,0
DA:71,0
DA:72,0
DA:73,0
DA:76,0
DA:77,0
DA:78,0
DA:82,0
DA:83,0
DA:84,0
DA:86,0
DA:87,0
DA:88,0
DA:96,1
DA:97,1
DA:98,1
DA:99,1
DA:100,1
DA:101,1
DA:102,1
DA:103,1
DA:104,1
DA:105,1
DA:109,10
DA:110,10
DA:111,10
DA:112,10
DA:114,83
DA:115,83
DA:116,10
DA:117,1
DA:118,1
DA:121,9
DA:122,9
DA:123,9
DA:124,9
DA:125,9
DA:127,73
DA:129,10
DA:130,10
DA:131,10
DA:132,63
DA:133,35
DA:134,1
DA:135,34
DA:136,23
DA:137,23
DA:138,23
DA:139,23
DA:140,23
DA:141,23
DA:142,23
DA:143,1
DA:144,10
DA:145,10
DA:146,10
DA:147,10
DA:148,28
DA:151,10
DA:152,10
DA:155,13
DA:157,13
DA:158,13
DA:161,13
DA:162,0
DA:163,13
DA:164,13
DA:165,13
DA:166,13
DA:167,13
DA:176,1
DA:177,1
DA:178,1
DA:179,1
DA:180,1
DA:183,1
DA:184,1
DA:185,1
DA:186,1
DA:187,1
DA:189,1
DA:190,1
DA:193,1
DA:194,1
DA:195,1
DA:196,1
DA:197,1
DA:198,1
DA:201,1
DA:202,1
DA:203,1
DA:204,1
DA:205,1
DA:208,1
DA:209,1
DA:210,1
DA:211,1
DA:212,1
DA:215,1
DA:216,1
DA:219,1
DA:220,1
DA:221,1
DA:222,1
DA:223,1
DA:224,1
DA:225,1
BRF:0
BRH:0
LF:128
LH:94
end_of_record
SF:/home/scott/code/covrs/src/github.rs
FN:60,_RNvMNtCsdrsuGOUfnGV_5covrs6githubNtB2_7Context10fetch_diff
FN:69,_RNvMNtCsdrsuGOUfnGV_5covrs6githubNtB2_7Context12post_comment
FN:43,_RNvMNtCsdrsuGOUfnGV_5covrs6githubNtB2_7Context8from_env
FN:131,_RNvNtCsdrsuGOUfnGV_5covrs6github12post_comment
FN:87,_RNvNtCsdrsuGOUfnGV_5covrs6github13fetch_pr_diff
FN:18,_RNvNtCsdrsuGOUfnGV_5covrs6github14check_response
FN:9,_RNvNtCsdrsuGOUfnGV_5covrs6github14github_request
FN:77,_RNvNtCsdrsuGOUfnGV_5covrs6github18pr_number_from_ref
FN:104,_RNvNtCsdrsuGOUfnGV_5covrs6github21find_existing_comment
FN:60,_RNvMNtCsfvMbbOWyruA_5covrs6githubNtB2_7Context10fetch_diff
FN:69,_RNvMNtCsfvMbbOWyruA_5covrs6githubNtB2_7Context12post_comment
FN:43,_RNvMNtCsfvMbbOWyruA_5covrs6githubNtB2_7Context8from_env
FN:131,_RNvNtCsfvMbbOWyruA_5covrs6github12post_comment
FN:87,_RNvNtCsfvMbbOWyruA_5covrs6github13fetch_pr_diff
FN:18,_RNvNtCsfvMbbOWyruA_5covrs6github14check_response
FN:9,_RNvNtCsfvMbbOWyruA_5covrs6github14github_request
FN:77,_RNvNtCsfvMbbOWyruA_5covrs6github18pr_number_from_ref
FN:104,_RNvNtCsfvMbbOWyruA_5covrs6github21find_existing_comment
FNDA:0,_RNvMNtCsdrsuGOUfnGV_5covrs6githubNtB2_7Context10fetch_diff
FNDA:0,_RNvMNtCsdrsuGOUfnGV_5covrs6githubNtB2_7Context12post_comment
FNDA:0,_RNvMNtCsdrsuGOUfnGV_5covrs6githubNtB2_7Context8from_env
FNDA:0,_RNvNtCsdrsuGOUfnGV_5covrs6github12post_comment
FNDA:0,_RNvNtCsdrsuGOUfnGV_5covrs6github13fetch_pr_diff
FNDA:0,_RNvNtCsdrsuGOUfnGV_5covrs6github14check_response
FNDA:0,_RNvNtCsdrsuGOUfnGV_5covrs6github14github_request
FNDA:0,_RNvNtCsdrsuGOUfnGV_5covrs6github18pr_number_from_ref
FNDA:0,_RNvNtCsdrsuGOUfnGV_5covrs6github21find_existing_comment
FNDA:0,_RNvMNtCsfvMbbOWyruA_5covrs6githubNtB2_7Context10fetch_diff
FNDA:0,_RNvMNtCsfvMbbOWyruA_5covrs6githubNtB2_7Context12post_comment
FNDA:0,_RNvMNtCsfvMbbOWyruA_5covrs6githubNtB2_7Context8from_env
FNDA:0,_RNvNtCsfvMbbOWyruA_5covrs6github12post_comment
FNDA:0,_RNvNtCsfvMbbOWyruA_5covrs6github13fetch_pr_diff
FNDA:0,_RNvNtCsfvMbbOWyruA_5covrs6github14check_response
FNDA:0,_RNvNtCsfvMbbOWyruA_5covrs6github14github_request
FNDA:0,_RNvNtCsfvMbbOWyruA_5covrs6github18pr_number_from_ref
FNDA:0,_RNvNtCsfvMbbOWyruA_5covrs6github21find_existing_comment
FNF:9
FNH:0
DA:9,0
DA:10,0
DA:11,0
DA:12,0
DA:13,0
DA:14,0
DA:15,0
DA:18,0
DA:19,0
DA:20,0
DA:21,0
DA:22,0
DA:23,0
DA:24,0
DA:25,0
DA:26,0
DA:28,0
DA:30,0
DA:43,0
DA:44,0
DA:45,0
DA:46,0
DA:47,0
DA:48,0
DA:49,0
DA:50,0
DA:51,0
DA:52,0
DA:53,0
DA:54,0
DA:55,0
DA:56,0
DA:57,0
DA:60,0
DA:61,0
DA:65,0
DA:66,0
DA:69,0
DA:70,0
DA:71,0
DA:72,0
DA:73,0
DA:77,0
DA:78,0
DA:79,0
DA:80,0
DA:81,0
DA:83,0
DA:85,0
DA:87,0
DA:88,0
DA:89,0
DA:90,0
DA:91,0
DA:92,0
DA:93,0
DA:94,0
DA:95,0
DA:104,0
DA:105,0
DA:107,0
DA:110,0
DA:111,0
DA:112,0
DA:114,0
DA:115,0
DA:116,0
DA:117,0
DA:118,0
DA:119,0
DA:120,0
DA:121,0
DA:122,0
DA:123,0
DA:125,0
DA:127,0
DA:128,0
DA:131,0
DA:132,0
DA:134,0
DA:135,0
DA:136,0
DA:137,0
DA:138,0
DA:139,0
DA:142,0
DA:143,0
DA:144,0
DA:145,0
DA:149,0
DA:150,0
BRF:0
BRH:0
LF:91
LH:0
end_of_record
SF:/home/scott/code/covrs/src/ingest.rs
FN:20,_RNCNvNtCsdrsuGOUfnGV_5covrs6ingest6ingest0B5_
FN:47,_RNCNvNtCsdrsuGOUfnGV_5covrs6ingest6ingests0_0B5_
FN:28,_RNCNvNtCsdrsuGOUfnGV_5covrs6ingest6ingests_0B5_
FN:12,_RNvNtCsdrsuGOUfnGV_5covrs6ingest6ingest
FN:20,_RNCNvNtCsfvMbbOWyruA_5covrs6ingest6ingest0B5_
FN:47,_RNCNvNtCsfvMbbOWyruA_5covrs6ingest6ingests0_0B5_
FN:28,_RNCNvNtCsfvMbbOWyruA_5covrs6ingest6ingests_0B5_
FN:12,_RNvNtCsfvMbbOWyruA_5covrs6ingest6ingest
FNDA:0,_RNCNvNtCsdrsuGOUfnGV_5covrs6ingest6ingest0B5_
FNDA:3,_RNCNvNtCsdrsuGOUfnGV_5covrs6ingest6ingests0_0B5_
FNDA:1,_RNCNvNtCsdrsuGOUfnGV_5covrs6ingest6ingests_0B5_
FNDA:10,_RNvNtCsdrsuGOUfnGV_5covrs6ingest6ingest
FNDA:0,_RNCNvNtCsfvMbbOWyruA_5covrs6ingest6ingest0B5_
FNDA:0,_RNCNvNtCsfvMbbOWyruA_5covrs6ingest6ingests0_0B5_
FNDA:0,_RNCNvNtCsfvMbbOWyruA_5covrs6ingest6ingests_0B5_
FNDA:1,_RNvNtCsfvMbbOWyruA_5covrs6ingest6ingest
FNF:4
FNH:3
DA:12,11
DA:13,11
DA:14,11
DA:15,11
DA:16,11
DA:17,11
DA:18,11
DA:19,11
DA:20,11
DA:23,11
DA:24,1
DA:25,1
DA:27,10
DA:28,10
DA:31,10
DA:32,10
DA:35,10
DA:36,1
DA:37,1
DA:38,1
DA:39,1
DA:40,9
DA:43,10
DA:44,7
DA:45,3
DA:46,3
DA:47,3
DA:48,3
DA:49,3
DA:52,10
DA:54,10
DA:55,10
DA:56,10
DA:57,10
DA:58,10
DA:59,10
DA:60,10
DA:61,1
DA:63,9
DA:64,11
BRF:0
BRH:0
LF:43
LH:42
end_of_record
SF:/home/scott/code/covrs/src/main.rs
FN:143,_RNvCsdahSd4mMg5c_5covrs17run_diff_coverage
FN:100,_RNvCsdahSd4mMg5c_5covrs4main
FN:143,_RNvCs34xDk8jC4n5_5covrs17run_diff_coverage
FN:100,_RNvCs34xDk8jC4n5_5covrs4main
FNDA:0,_RNvCsdahSd4mMg5c_5covrs17run_diff_coverage
FNDA:0,_RNvCsdahSd4mMg5c_5covrs4main
FNDA:0,_RNvCs34xDk8jC4n5_5covrs17run_diff_coverage
FNDA:0,_RNvCs34xDk8jC4n5_5covrs4main
FNF:2
FNH:0
DA:100,0
DA:101,0
DA:103,0
DA:104,0
DA:106,0
DA:108,0
DA:109,0
DA:110,0
DA:111,0
DA:113,0
DA:114,0
DA:115,0
DA:116,0
DA:117,0
DA:118,0
DA:119,0
DA:120,0
DA:122,0
DA:123,0
DA:124,0
DA:125,0
DA:128,0
DA:129,0
DA:130,0
DA:132,0
DA:133,0
DA:134,0
DA:135,0
DA:136,0
DA:139,0
DA:140,0
DA:143,0
DA:144,0
DA:145,0
DA:146,0
DA:147,0
DA:148,0
DA:149,0
DA:150,0
DA:152,0
DA:153,0
DA:154,0
DA:155,0
DA:156,0
DA:159,0
DA:160,0
DA:162,0
DA:164,0
DA:165,0
DA:166,0
DA:167,0
DA:170,0
DA:171,0
BRF:0
BRH:0
LF:53
LH:0
end_of_record
SF:/home/scott/code/covrs/src/model.rs
FN:49,_RNvMNtCsdrsuGOUfnGV_5covrs5modelNtB2_12FileCoverage3new
FN:88,_RNvMs0_NtCsdrsuGOUfnGV_5covrs5modelNtB5_13ReportSummary11branch_rate
FN:93,_RNvMs0_NtCsdrsuGOUfnGV_5covrs5modelNtB5_13ReportSummary13function_rate
FN:83,_RNvMs0_NtCsdrsuGOUfnGV_5covrs5modelNtB5_13ReportSummary9line_rate
FN:110,_RNvMs1_NtCsdrsuGOUfnGV_5covrs5modelNtB5_11FileSummary9line_rate
FN:147,_RNvMs2_NtCsdrsuGOUfnGV_5covrs5modelNtB5_16FileDiffCoverage4rate
FN:142,_RNvMs2_NtCsdrsuGOUfnGV_5covrs5modelNtB5_16FileDiffCoverage5total
FN:64,_RNvMs_NtCsdrsuGOUfnGV_5covrs5modelNtB4_12CoverageData3new
FN:7,_RNvNtCsdrsuGOUfnGV_5covrs5model4rate
FN:49,_RNvMNtCsfvMbbOWyruA_5covrs5modelNtB2_12FileCoverage3new
FN:88,_RNvMs0_NtCsfvMbbOWyruA_5covrs5modelNtB5_13ReportSummary11branch_rate
FN:93,_RNvMs0_NtCsfvMbbOWyruA_5covrs5modelNtB5_13ReportSummary13function_rate
FN:83,_RNvMs0_NtCsfvMbbOWyruA_5covrs5modelNtB5_13ReportSummary9line_rate
FN:110,_RNvMs1_NtCsfvMbbOWyruA_5covrs5modelNtB5_11FileSummary9line_rate
FN:147,_RNvMs2_NtCsfvMbbOWyruA_5covrs5modelNtB5_16FileDiffCoverage4rate
FN:142,_RNvMs2_NtCsfvMbbOWyruA_5covrs5modelNtB5_16FileDiffCoverage5total
FN:64,_RNvMs_NtCsfvMbbOWyruA_5covrs5modelNtB4_12CoverageData3new
FN:7,_RNvNtCsfvMbbOWyruA_5covrs5model4rate
FNDA:25,_RNvMNtCsdrsuGOUfnGV_5covrs5modelNtB2_12FileCoverage3new
FNDA:0,_RNvMs0_NtCsdrsuGOUfnGV_5covrs5modelNtB5_13ReportSummary11branch_rate
FNDA:0,_RNvMs0_NtCsdrsuGOUfnGV_5covrs5modelNtB5_13ReportSummary13function_rate
FNDA:0,_RNvMs0_NtCsdrsuGOUfnGV_5covrs5modelNtB5_13ReportSummary9line_rate
FNDA:0,_RNvMs1_NtCsdrsuGOUfnGV_5covrs5modelNtB5_11FileSummary9line_rate
FNDA:0,_RNvMs2_NtCsdrsuGOUfnGV_5covrs5modelNtB5_16FileDiffCoverage4rate
FNDA:0,_RNvMs2_NtCsdrsuGOUfnGV_5covrs5modelNtB5_16FileDiffCoverage5total
FNDA:22,_RNvMs_NtCsdrsuGOUfnGV_5covrs5modelNtB4_12CoverageData3new
FNDA:0,_RNvNtCsdrsuGOUfnGV_5covrs5model4rate
FNDA:11,_RNvMNtCsfvMbbOWyruA_5covrs5modelNtB2_12FileCoverage3new
FNDA:0,_RNvMs0_NtCsfvMbbOWyruA_5covrs5modelNtB5_13ReportSummary11branch_rate
FNDA:1,_RNvMs0_NtCsfvMbbOWyruA_5covrs5modelNtB5_13ReportSummary13function_rate
FNDA:5,_RNvMs0_NtCsfvMbbOWyruA_5covrs5modelNtB5_13ReportSummary9line_rate
FNDA:6,_RNvMs1_NtCsfvMbbOWyruA_5covrs5modelNtB5_11FileSummary9line_rate
FNDA:4,_RNvMs2_NtCsfvMbbOWyruA_5covrs5modelNtB5_16FileDiffCoverage4rate
FNDA:6,_RNvMs2_NtCsfvMbbOWyruA_5covrs5modelNtB5_16FileDiffCoverage5total
FNDA:11,_RNvMs_NtCsfvMbbOWyruA_5covrs5modelNtB4_12CoverageData3new
FNDA:23,_RNvNtCsfvMbbOWyruA_5covrs5model4rate
FNF:9
FNH:8
DA:7,23
DA:8,23
DA:9,0
DA:11,23
DA:13,23
DA:49,36
DA:50,36
DA:51,36
DA:52,36
DA:53,36
DA:54,36
DA:64,33
DA:65,33
DA:66,33
DA:83,5
DA:84,5
DA:85,5
DA:88,0
DA:89,0
DA:90,0
DA:93,1
DA:94,1
DA:95,1
DA:110,6
DA:111,6
DA:112,6
DA:142,6
DA:143,6
DA:144,6
DA:147,4
DA:148,4
DA:149,4
BRF:0
BRH:0
LF:32
LH:28
end_of_record
SF:/home/scott/code/covrs/src/parsers/cobertura.rs
FN:277,_RNvNtNtCsdrsuGOUfnGV_5covrs7parsers9cobertura19resolve_source_path
FN:61,_RNvNtNtCsdrsuGOUfnGV_5covrs7parsers9cobertura5parse
FN:291,_RNvNtNtCsdrsuGOUfnGV_5covrs7parsers9cobertura8get_attr
FN:55,_RNvXNtNtCsdrsuGOUfnGV_5covrs7parsers9coberturaNtB2_15CoberturaParserNtB4_14CoverageParser5parse
FN:43,_RNvXNtNtCsdrsuGOUfnGV_5covrs7parsers9coberturaNtB2_15CoberturaParserNtB4_14CoverageParser6format
FN:47,_RNvXNtNtCsdrsuGOUfnGV_5covrs7parsers9coberturaNtB2_15CoberturaParserNtB4_14CoverageParser9can_parse
FN:90,_RNCNvNtNtCsdrsuGOUfnGV_5covrs7parsers9cobertura5parse0B7_
FN:136,_RNCNvNtNtCsdrsuGOUfnGV_5covrs7parsers9cobertura5parses0_0B7_
FN:143,_RNCNvNtNtCsdrsuGOUfnGV_5covrs7parsers9cobertura5parses1_0B7_
FN:148,_RNCNvNtNtCsdrsuGOUfnGV_5covrs7parsers9cobertura5parses2_0B7_
FN:130,_RNCNvNtNtCsdrsuGOUfnGV_5covrs7parsers9cobertura5parses_0B7_
FN:293,_RNCNvNtNtCsdrsuGOUfnGV_5covrs7parsers9cobertura8get_attr0B7_
FN:34,_RNCNvNtNtCsdrsuGOUfnGV_5covrs7parsers9cobertura9BRANCH_RE0B7_
FN:301,_RNvNtNtNtCsfvMbbOWyruA_5covrs7parsers9cobertura5testss_20test_parse_cobertura
FN:376,_RNvNtNtNtCsfvMbbOWyruA_5covrs7parsers9cobertura5testss_26test_parse_cobertura_empty
FN:384,_RNvNtNtNtCsfvMbbOWyruA_5covrs7parsers9cobertura5testss_30test_parse_cobertura_malformed
FN:368,_RNvNtNtNtCsfvMbbOWyruA_5covrs7parsers9cobertura5testss_31test_parse_cobertura_no_sources
FN:334,_RNvNtNtNtCsfvMbbOWyruA_5covrs7parsers9cobertura5testss_33test_parse_cobertura_branch_dedup
FN:357,_RNvNtNtNtCsfvMbbOWyruA_5covrs7parsers9cobertura5testss_37test_parse_cobertura_multiple_sources
FN:277,_RNvNtNtCsfvMbbOWyruA_5covrs7parsers9cobertura19resolve_source_path
FN:61,_RNvNtNtCsfvMbbOWyruA_5covrs7parsers9cobertura5parse
FN:291,_RNvNtNtCsfvMbbOWyruA_5covrs7parsers9cobertura8get_attr
FN:55,_RNvXNtNtCsfvMbbOWyruA_5covrs7parsers9coberturaNtB2_15CoberturaParserNtB4_14CoverageParser5parse
FN:43,_RNvXNtNtCsfvMbbOWyruA_5covrs7parsers9coberturaNtB2_15CoberturaParserNtB4_14CoverageParser6format
FN:47,_RNvXNtNtCsfvMbbOWyruA_5covrs7parsers9coberturaNtB2_15CoberturaParserNtB4_14CoverageParser9can_parse
FN:90,_RNCNvNtNtCsfvMbbOWyruA_5covrs7parsers9cobertura5parse0B7_
FN:136,_RNCNvNtNtCsfvMbbOWyruA_5covrs7parsers9cobertura5parses0_0B7_
FN:143,_RNCNvNtNtCsfvMbbOWyruA_5covrs7parsers9cobertura5parses1_0B7_
FN:148,_RNCNvNtNtCsfvMbbOWyruA_5covrs7parsers9cobertura5parses2_0B7_
FN:130,_RNCNvNtNtCsfvMbbOWyruA_5covrs7parsers9cobertura5parses_0B7_
FN:293,_RNCNvNtNtCsfvMbbOWyruA_5covrs7parsers9cobertura8get_attr0B7_
FN:34,_RNCNvNtNtCsfvMbbOWyruA_5covrs7parsers9cobertura9BRANCH_RE0B7_
FNDA:4,_RNvNtNtCsdrsuGOUfnGV_5covrs7parsers9cobertura19resolve_source_path
FNDA:2,_RNvNtNtCsdrsuGOUfnGV_5covrs7parsers9cobertura5parse
FNDA:6,_RNvNtNtCsdrsuGOUfnGV_5covrs7parsers9cobertura8get_attr
FNDA:1,_RNvXNtNtCsdrsuGOUfnGV_5covrs7parsers9coberturaNtB2_15CoberturaParserNtB4_14CoverageParser5parse
FNDA:1,_RNvXNtNtCsdrsuGOUfnGV_5covrs7parsers9coberturaNtB2_15CoberturaParserNtB4_14CoverageParser6format
FNDA:2,_RNvXNtNtCsdrsuGOUfnGV_5covrs7parsers9coberturaNtB2_15CoberturaParserNtB4_14CoverageParser9can_parse
FNDA:0,_RNCNvNtNtCsdrsuGOUfnGV_5covrs7parsers9cobertura5parse0B7_
FNDA:27,_RNCNvNtNtCsdrsuGOUfnGV_5covrs7parsers9cobertura5parses0_0B7_
FNDA:2,_RNCNvNtNtCsdrsuGOUfnGV_5covrs7parsers9cobertura5parses1_0B7_
FNDA:2,_RNCNvNtNtCsdrsuGOUfnGV_5covrs7parsers9cobertura5parses2_0B7_
FNDA:27,_RNCNvNtNtCsdrsuGOUfnGV_5covrs7parsers9cobertura5parses_0B7_
FNDA:6,_RNCNvNtNtCsdrsuGOUfnGV_5covrs7parsers9cobertura8get_attr0B7_
FNDA:2,_RNCNvNtNtCsdrsuGOUfnGV_5covrs7parsers9cobertura9BRANCH_RE0B7_
FNDA:1,_RNvNtNtNtCsfvMbbOWyruA_5covrs7parsers9cobertura5testss_20test_parse_cobertura
FNDA:1,_RNvNtNtNtCsfvMbbOWyruA_5covrs7parsers9cobertura5testss_26test_parse_cobertura_empty
FNDA:1,_RNvNtNtNtCsfvMbbOWyruA_5covrs7parsers9cobertura5testss_30test_parse_cobertura_malformed
FNDA:1,_RNvNtNtNtCsfvMbbOWyruA_5covrs7parsers9cobertura5testss_31test_parse_cobertura_no_sources
FNDA:1,_RNvNtNtNtCsfvMbbOWyruA_5covrs7parsers9cobertura5testss_33test_parse_cobertura_branch_dedup
FNDA:1,_RNvNtNtNtCsfvMbbOWyruA_5covrs7parsers9cobertura5testss_37test_parse_cobertura_multiple_sources
FNDA:6,_RNvNtNtCsfvMbbOWyruA_5covrs7parsers9cobertura19resolve_source_path
FNDA:6,_RNvNtNtCsfvMbbOWyruA_5covrs7parsers9cobertura5parse
FNDA:8,_RNvNtNtCsfvMbbOWyruA_5covrs7parsers9cobertura8get_attr
FNDA:0,_RNvXNtNtCsfvMbbOWyruA_5covrs7parsers9coberturaNtB2_15CoberturaParserNtB4_14CoverageParser5parse
FNDA:1,_RNvXNtNtCsfvMbbOWyruA_5covrs7parsers9coberturaNtB2_15CoberturaParserNtB4_14CoverageParser6format
FNDA:2,_RNvXNtNtCsfvMbbOWyruA_5covrs7parsers9coberturaNtB2_15CoberturaParserNtB4_14CoverageParser9can_parse
FNDA:1,_RNCNvNtNtCsfvMbbOWyruA_5covrs7parsers9cobertura5parse0B7_
FNDA:24,_RNCNvNtNtCsfvMbbOWyruA_5covrs7parsers9cobertura5parses0_0B7_
FNDA:3,_RNCNvNtNtCsfvMbbOWyruA_5covrs7parsers9cobertura5parses1_0B7_
FNDA:3,_RNCNvNtNtCsfvMbbOWyruA_5covrs7parsers9cobertura5parses2_0B7_
FNDA:24,_RNCNvNtNtCsfvMbbOWyruA_5covrs7parsers9cobertura5parses_0B7_
FNDA:8,_RNCNvNtNtCsfvMbbOWyruA_5covrs7parsers9cobertura8get_attr0B7_
FNDA:1,_RNCNvNtNtCsfvMbbOWyruA_5covrs7parsers9cobertura9BRANCH_RE0B7_
FNF:19
FNH:19
DA:34,3
DA:43,2
DA:44,2
DA:45,2
DA:47,4
DA:48,4
DA:49,4
DA:52,4
DA:53,4
DA:55,1
DA:56,1
DA:57,1
DA:61,8
DA:62,8
DA:63,8
DA:65,8
DA:66,8
DA:69,8
DA:70,8
DA:71,8
DA:72,8
DA:73,8
DA:74,8
DA:75,8
DA:78,8
DA:79,8
DA:81,8
DA:84,221
DA:85,221
DA:86,220
DA:87,1
DA:88,1
DA:89,1
DA:90,1
DA:92,7
DA:93,74
DA:94,130
DA:95,130
DA:100,7
DA:101,7
DA:102,7
DA:104,119
DA:105,10
DA:106,10
DA:107,10
DA:108,10
DA:109,10
DA:110,10
DA:112,4
DA:113,4
DA:114,4
DA:115,4
DA:116,4
DA:117,4
DA:118,95
DA:119,51
DA:121,51
DA:122,51
DA:123,51
DA:124,51
DA:126,112
DA:127,112
DA:128,112
DA:130,51
DA:132,56
DA:133,51
DA:134,51
DA:135,51
DA:136,51
DA:137,51
DA:140,5
DA:141,5
DA:142,5
DA:143,5
DA:144,5
DA:146,5
DA:147,5
DA:148,5
DA:150,0
DA:154,51
DA:155,51
DA:161,51
DA:162,10
DA:163,0
DA:164,10
DA:165,41
DA:166,41
DA:167,41
DA:168,41
DA:169,41
DA:170,41
DA:171,41
DA:174,51
DA:175,10
DA:176,4
DA:177,6
DA:178,10
DA:179,10
DA:180,10
DA:181,41
DA:187,51
DA:188,4
DA:189,4
DA:190,4
DA:191,4
DA:193,8
DA:198,8
DA:199,8
DA:200,8
DA:201,8
DA:202,8
DA:203,8
DA:204,8
DA:205,8
DA:206,8
DA:207,8
DA:209,0
DA:210,0
DA:211,47
DA:212,0
DA:213,0
DA:215,58
DA:218,6
DA:219,6
DA:220,6
DA:221,6
DA:222,6
DA:223,6
DA:224,0
DA:226,68
DA:227,68
DA:228,7
DA:229,7
DA:230,57
DA:231,9
DA:232,9
DA:233,9
DA:236,4
DA:237,4
DA:238,4
DA:240,4
DA:241,4
DA:242,4
DA:243,4
DA:244,4
DA:246,0
DA:247,4
DA:248,4
DA:249,0
DA:251,48
DA:253,9
DA:255,213
DA:259,7
DA:260,0
DA:261,7
DA:265,9
DA:266,9
DA:269,7
DA:270,8
DA:277,10
DA:278,10
DA:279,0
DA:280,10
DA:281,10
DA:282,7
DA:283,7
DA:284,7
DA:285,0
DA:287,3
DA:288,10
DA:291,14
DA:292,14
DA:293,14
DA:294,14
DA:301,1
DA:302,1
DA:303,1
DA:305,1
DA:307,1
DA:308,1
DA:309,1
DA:310,1
DA:311,1
DA:312,1
DA:313,1
DA:316,1
DA:317,1
DA:318,1
DA:319,1
DA:322,1
DA:323,1
DA:324,1
DA:325,1
DA:327,1
DA:328,1
DA:329,1
DA:330,1
DA:331,1
DA:334,1
DA:337,1
DA:338,1
DA:340,1
DA:341,1
DA:344,1
DA:347,1
DA:348,1
DA:349,1
DA:350,1
DA:351,1
DA:352,1
DA:353,1
DA:354,1
DA:357,1
DA:359,1
DA:360,1
DA:362,1
DA:364,1
DA:365,1
DA:368,1
DA:369,1
DA:370,1
DA:371,1
DA:372,1
DA:373,1
DA:376,1
DA:378,1
DA:379,1
DA:380,1
DA:381,1
DA:384,1
DA:386,1
DA:387,1
DA:388,1
DA:389,1
DA:391,1
DA:392,1
DA:395,1
BRF:0
BRH:0
LF:243
LH:231
end_of_record
SF:/home/scott/code/covrs/src/parsers/lcov.rs
FN:65,_RNvNtNtCsdrsuGOUfnGV_5covrs7parsers4lcov11parse_inner
FN:60,_RNvNtNtCsdrsuGOUfnGV_5covrs7parsers4lcov5parse
FN:54,_RNvXNtNtCsdrsuGOUfnGV_5covrs7parsers4lcovNtB2_10LcovParserNtB4_14CoverageParser5parse
FN:31,_RNvXNtNtCsdrsuGOUfnGV_5covrs7parsers4lcovNtB2_10LcovParserNtB4_14CoverageParser6format
FN:35,_RNvXNtNtCsdrsuGOUfnGV_5covrs7parsers4lcovNtB2_10LcovParserNtB4_14CoverageParser9can_parse
FN:37,_RNCNvXNtNtCsdrsuGOUfnGV_5covrs7parsers4lcovNtB4_10LcovParserNtB6_14CoverageParser9can_parse0B8_
FN:50,_RNCNvXNtNtCsdrsuGOUfnGV_5covrs7parsers4lcovNtB4_10LcovParserNtB6_14CoverageParser9can_parses0_0B8_
FN:47,_RNCNvXNtNtCsdrsuGOUfnGV_5covrs7parsers4lcovNtB4_10LcovParserNtB6_14CoverageParser9can_parses_0B8_
FN:37,_RNCNvXNtNtCsfvMbbOWyruA_5covrs7parsers4lcovNtB4_10LcovParserNtB6_14CoverageParser9can_parse0B8_
FN:50,_RNCNvXNtNtCsfvMbbOWyruA_5covrs7parsers4lcovNtB4_10LcovParserNtB6_14CoverageParser9can_parses0_0B8_
FN:47,_RNCNvXNtNtCsfvMbbOWyruA_5covrs7parsers4lcovNtB4_10LcovParserNtB6_14CoverageParser9can_parses_0B8_
FN:194,_RNvNtNtNtCsfvMbbOWyruA_5covrs7parsers4lcov5testss_15test_parse_lcov
FN:257,_RNvNtNtNtCsfvMbbOWyruA_5covrs7parsers4lcov5testss_21test_parse_lcov_empty
FN:238,_RNvNtNtNtCsfvMbbOWyruA_5covrs7parsers4lcov5testss_31test_parse_lcov_negative_counts
FN:230,_RNvNtNtNtCsfvMbbOWyruA_5covrs7parsers4lcov5testss_32test_parse_lcov_no_end_of_record
FN:65,_RNvNtNtCsfvMbbOWyruA_5covrs7parsers4lcov11parse_inner
FN:60,_RNvNtNtCsfvMbbOWyruA_5covrs7parsers4lcov5parse
FN:54,_RNvXNtNtCsfvMbbOWyruA_5covrs7parsers4lcovNtB2_10LcovParserNtB4_14CoverageParser5parse
FN:31,_RNvXNtNtCsfvMbbOWyruA_5covrs7parsers4lcovNtB2_10LcovParserNtB4_14CoverageParser6format
FN:35,_RNvXNtNtCsfvMbbOWyruA_5covrs7parsers4lcovNtB2_10LcovParserNtB4_14CoverageParser9can_parse
FNDA:19,_RNvNtNtCsdrsuGOUfnGV_5covrs7parsers4lcov11parse_inner
FNDA:19,_RNvNtNtCsdrsuGOUfnGV_5covrs7parsers4lcov5parse
FNDA:8,_RNvXNtNtCsdrsuGOUfnGV_5covrs7parsers4lcovNtB2_10LcovParserNtB4_14CoverageParser5parse
FNDA:8,_RNvXNtNtCsdrsuGOUfnGV_5covrs7parsers4lcovNtB2_10LcovParserNtB4_14CoverageParser6format
FNDA:9,_RNvXNtNtCsdrsuGOUfnGV_5covrs7parsers4lcovNtB2_10LcovParserNtB4_14CoverageParser9can_parse
FNDA:9,_RNCNvXNtNtCsdrsuGOUfnGV_5covrs7parsers4lcovNtB4_10LcovParserNtB6_14CoverageParser9can_parse0B8_
FNDA:40,_RNCNvXNtNtCsdrsuGOUfnGV_5covrs7parsers4lcovNtB4_10LcovParserNtB6_14CoverageParser9can_parses0_0B8_
FNDA:40,_RNCNvXNtNtCsdrsuGOUfnGV_5covrs7parsers4lcovNtB4_10LcovParserNtB6_14CoverageParser9can_parses_0B8_
FNDA:6,_RNCNvXNtNtCsfvMbbOWyruA_5covrs7parsers4lcovNtB4_10LcovParserNtB6_14CoverageParser9can_parse0B8_
FNDA:6,_RNCNvXNtNtCsfvMbbOWyruA_5covrs7parsers4lcovNtB4_10LcovParserNtB6_14CoverageParser9can_parses0_0B8_
FNDA:5,_RNCNvXNtNtCsfvMbbOWyruA_5covrs7parsers4lcovNtB4_10LcovParserNtB6_14CoverageParser9can_parses_0B8_
FNDA:1,_RNvNtNtNtCsfvMbbOWyruA_5covrs7parsers4lcov5testss_15test_parse_lcov
FNDA:1,_RNvNtNtNtCsfvMbbOWyruA_5covrs7parsers4lcov5testss_21test_parse_lcov_empty
FNDA:1,_RNvNtNtNtCsfvMbbOWyruA_5covrs7parsers4lcov5testss_31test_parse_lcov_negative_counts
FNDA:1,_RNvNtNtNtCsfvMbbOWyruA_5covrs7parsers4lcov5testss_32test_parse_lcov_no_end_of_record
FNDA:5,_RNvNtNtCsfvMbbOWyruA_5covrs7parsers4lcov11parse_inner
FNDA:5,_RNvNtNtCsfvMbbOWyruA_5covrs7parsers4lcov5parse
FNDA:1,_RNvXNtNtCsfvMbbOWyruA_5covrs7parsers4lcovNtB2_10LcovParserNtB4_14CoverageParser5parse
FNDA:4,_RNvXNtNtCsfvMbbOWyruA_5covrs7parsers4lcovNtB2_10LcovParserNtB4_14CoverageParser6format
FNDA:6,_RNvXNtNtCsfvMbbOWyruA_5covrs7parsers4lcovNtB2_10LcovParserNtB4_14CoverageParser9can_parse
FNF:12
FNH:12
DA:31,12
DA:32,12
DA:33,12
DA:35,15
DA:37,15
DA:38,15
DA:39,15
DA:40,10
DA:41,5
DA:42,0
DA:45,5
DA:46,5
DA:47,45
DA:48,5
DA:49,5
DA:50,46
DA:51,5
DA:52,15
DA:54,9
DA:55,9
DA:56,9
DA:60,24
DA:61,24
DA:62,24
DA:63,24
DA:65,24
DA:66,24
DA:67,24
DA:70,24
DA:74,24
DA:76,141
DA:77,141
DA:78,141
DA:79,0
DA:80,141
DA:82,141
DA:83,24
DA:84,24
DA:85,24
DA:86,24
DA:87,24
DA:88,24
DA:89,117
DA:92,117
DA:93,117
DA:94,0
DA:97,117
DA:98,117
DA:99,5
DA:100,5
DA:101,112
DA:102,25
DA:103,25
DA:104,25
DA:105,25
DA:106,87
DA:108,2
DA:109,2
DA:110,2
DA:111,2
DA:112,0
DA:114,85
DA:116,2
DA:117,2
DA:118,2
DA:119,2
DA:120,2
DA:121,2
DA:122,2
DA:123,2
DA:124,2
DA:125,2
DA:126,2
DA:127,0
DA:129,83
DA:133,71
DA:134,71
DA:135,71
DA:136,71
DA:137,71
DA:138,71
DA:139,70
DA:140,70
DA:141,70
DA:142,70
DA:143,70
DA:144,1
DA:145,1
DA:146,1
DA:147,1
DA:149,0
DA:150,0
DA:151,0
DA:153,12
DA:156,2
DA:157,2
DA:158,2
DA:159,2
DA:160,2
DA:161,0
DA:163,2
DA:165,2
DA:166,2
DA:167,2
DA:168,2
DA:169,2
DA:170,2
DA:171,2
DA:172,0
DA:173,0
DA:174,0
DA:177,10
DA:182,24
DA:183,1
DA:184,23
DA:186,24
DA:187,24
DA:194,1
DA:195,1
DA:196,1
DA:198,1
DA:200,1
DA:201,1
DA:202,1
DA:203,1
DA:204,1
DA:205,1
DA:206,1
DA:208,1
DA:209,1
DA:210,1
DA:211,1
DA:212,1
DA:213,1
DA:215,1
DA:216,1
DA:217,1
DA:218,1
DA:219,1
DA:220,1
DA:222,1
DA:223,1
DA:224,1
DA:225,1
DA:226,1
DA:227,1
DA:230,1
DA:231,1
DA:232,1
DA:233,1
DA:234,1
DA:235,1
DA:238,1
DA:241,1
DA:242,1
DA:244,1
DA:245,1
DA:247,1
DA:248,1
DA:249,1
DA:250,1
DA:251,1
DA:252,1
DA:253,1
DA:254,1
DA:257,1
DA:260,1
DA:261,1
DA:262,1
DA:263,1
BRF:0
BRH:0
LF:173
LH:161
end_of_record
SF:/home/scott/code/covrs/src/parsers/mod.rs
FN:72,_RNvNtCsdrsuGOUfnGV_5covrs7parsers10for_format
FN:59,_RNvNtCsdrsuGOUfnGV_5covrs7parsers3all
FN:67,_RNvNtCsdrsuGOUfnGV_5covrs7parsers6detect
FN:32,_RNvXNtCsdrsuGOUfnGV_5covrs7parsersNtB2_6FormatNtNtCslH02haMvknO_4core3fmt7Display3fmt
FN:43,_RNvXs_NtCsdrsuGOUfnGV_5covrs7parsersNtB4_6FormatNtNtNtCslH02haMvknO_4core3str6traits7FromStr8from_str
FN:68,_RNCNvNtCsdrsuGOUfnGV_5covrs7parsers6detect0B5_
FN:107,_RNvNtNtCsfvMbbOWyruA_5covrs7parsers5testss_19test_detect_unknown
FN:93,_RNvNtNtCsfvMbbOWyruA_5covrs7parsers5testss_27test_detect_lcov_by_content
FN:84,_RNvNtNtCsfvMbbOWyruA_5covrs7parsers5testss_29test_detect_lcov_by_extension
FN:100,_RNvNtNtCsfvMbbOWyruA_5covrs7parsers5testss_32test_detect_cobertura_by_content
FN:68,_RNCNvNtCsfvMbbOWyruA_5covrs7parsers6detect0B5_
FN:72,_RNvNtCsfvMbbOWyruA_5covrs7parsers10for_format
FN:59,_RNvNtCsfvMbbOWyruA_5covrs7parsers3all
FN:67,_RNvNtCsfvMbbOWyruA_5covrs7parsers6detect
FN:32,_RNvXNtCsfvMbbOWyruA_5covrs7parsersNtB2_6FormatNtNtCslH02haMvknO_4core3fmt7Display3fmt
FN:43,_RNvXs_NtCsfvMbbOWyruA_5covrs7parsersNtB4_6FormatNtNtNtCslH02haMvknO_4core3str6traits7FromStr8from_str
FNDA:1,_RNvNtCsdrsuGOUfnGV_5covrs7parsers10for_format
FNDA:9,_RNvNtCsdrsuGOUfnGV_5covrs7parsers3all
FNDA:9,_RNvNtCsdrsuGOUfnGV_5covrs7parsers6detect
FNDA:9,_RNvXNtCsdrsuGOUfnGV_5covrs7parsersNtB2_6FormatNtNtCslH02haMvknO_4core3fmt7Display3fmt
FNDA:1,_RNvXs_NtCsdrsuGOUfnGV_5covrs7parsersNtB4_6FormatNtNtNtCslH02haMvknO_4core3str6traits7FromStr8from_str
FNDA:11,_RNCNvNtCsdrsuGOUfnGV_5covrs7parsers6detect0B5_
FNDA:1,_RNvNtNtCsfvMbbOWyruA_5covrs7parsers5testss_19test_detect_unknown
FNDA:1,_RNvNtNtCsfvMbbOWyruA_5covrs7parsers5testss_27test_detect_lcov_by_content
FNDA:1,_RNvNtNtCsfvMbbOWyruA_5covrs7parsers5testss_29test_detect_lcov_by_extension
FNDA:1,_RNvNtNtCsfvMbbOWyruA_5covrs7parsers5testss_32test_detect_cobertura_by_content
FNDA:8,_RNCNvNtCsfvMbbOWyruA_5covrs7parsers6detect0B5_
FNDA:0,_RNvNtCsfvMbbOWyruA_5covrs7parsers10for_format
FNDA:6,_RNvNtCsfvMbbOWyruA_5covrs7parsers3all
FNDA:6,_RNvNtCsfvMbbOWyruA_5covrs7parsers6detect
FNDA:2,_RNvXNtCsfvMbbOWyruA_5covrs7parsersNtB2_6FormatNtNtCslH02haMvknO_4core3fmt7Display3fmt
FNDA:0,_RNvXs_NtCsfvMbbOWyruA_5covrs7parsersNtB4_6FormatNtNtNtCslH02haMvknO_4core3str6traits7FromStr8from_str
FNF:10
FNH:10
DA:32,11
DA:33,11
DA:34,1
DA:35,10
DA:37,11
DA:43,1
DA:44,1
DA:45,1
DA:46,1
DA:47,0
DA:48,0
DA:49,0
DA:51,1
DA:59,15
DA:60,15
DA:61,15
DA:62,15
DA:64,15
DA:67,15
DA:68,19
DA:69,15
DA:72,1
DA:73,1
DA:74,0
DA:75,1
DA:77,1
DA:84,1
DA:85,1
DA:86,1
DA:88,1
DA:89,1
DA:90,1
DA:93,1
DA:94,1
DA:95,1
DA:96,1
DA:97,1
DA:100,1
DA:101,1
DA:102,1
DA:103,1
DA:104,1
DA:107,1
DA:108,1
DA:109,1
BRF:0
BRH:0
LF:46
LH:42
end_of_record
SF:/home/scott/code/covrs/src/report.rs
FN:191,_RNCNvNtCsdrsuGOUfnGV_5covrs6report12build_report0B5_
FN:215,_RNCNvNtCsdrsuGOUfnGV_5covrs6report12build_reports_0B5_
FN:145,_RNCNvXs0_NtCsdrsuGOUfnGV_5covrs6reportNtB7_17MarkdownFormatterNtB7_15ReportFormatter6format0B9_
FN:147,_RNCNvXs0_NtCsdrsuGOUfnGV_5covrs6reportNtB7_17MarkdownFormatterNtB7_15ReportFormatter6formats_0B9_
FN:90,_RNCNvXs_NtCsdrsuGOUfnGV_5covrs6reportNtB6_13TextFormatterNtB6_15ReportFormatter6format0B8_
FN:92,_RNCNvXs_NtCsdrsuGOUfnGV_5covrs6reportNtB6_13TextFormatterNtB6_15ReportFormatter6formats_0B8_
FN:35,_RNvMNtCsdrsuGOUfnGV_5covrs6reportNtB2_18DiffCoverageReport11format_text
FN:41,_RNvMNtCsdrsuGOUfnGV_5covrs6reportNtB2_18DiffCoverageReport15format_markdown
FN:29,_RNvMNtCsdrsuGOUfnGV_5covrs6reportNtB2_18DiffCoverageReport6format
FN:185,_RNvNtCsdrsuGOUfnGV_5covrs6report12build_report
FN:221,_RNvNtCsdrsuGOUfnGV_5covrs6report18format_line_ranges
FN:123,_RNvXs0_NtCsdrsuGOUfnGV_5covrs6reportNtB5_17MarkdownFormatterNtB5_15ReportFormatter6format
FN:56,_RNvXs_NtCsdrsuGOUfnGV_5covrs6reportNtB4_13TextFormatterNtB4_15ReportFormatter6format
FN:35,_RNvMNtCsfvMbbOWyruA_5covrs6reportNtB2_18DiffCoverageReport11format_text
FN:319,_RNvNtNtCsfvMbbOWyruA_5covrs6report5testss_22test_format_with_trait
FN:258,_RNvNtNtCsfvMbbOWyruA_5covrs6report5testss_29test_format_line_ranges_empty
FN:273,_RNvNtNtCsfvMbbOWyruA_5covrs6report5testss_29test_format_line_ranges_mixed
FN:263,_RNvNtNtCsfvMbbOWyruA_5covrs6report5testss_30test_format_line_ranges_single
FN:278,_RNvNtNtCsfvMbbOWyruA_5covrs6report5testss_32test_format_markdown_all_covered
FN:297,_RNvNtNtCsfvMbbOWyruA_5covrs6report5testss_32test_format_markdown_with_misses
FN:268,_RNvNtNtCsfvMbbOWyruA_5covrs6report5testss_35test_format_line_ranges_consecutive
FN:191,_RNCNvNtCsfvMbbOWyruA_5covrs6report12build_report0B5_
FN:215,_RNCNvNtCsfvMbbOWyruA_5covrs6report12build_reports_0B5_
FN:145,_RNCNvXs0_NtCsfvMbbOWyruA_5covrs6reportNtB7_17MarkdownFormatterNtB7_15ReportFormatter6format0B9_
FN:147,_RNCNvXs0_NtCsfvMbbOWyruA_5covrs6reportNtB7_17MarkdownFormatterNtB7_15ReportFormatter6formats_0B9_
FN:90,_RNCNvXs_NtCsfvMbbOWyruA_5covrs6reportNtB6_13TextFormatterNtB6_15ReportFormatter6format0B8_
FN:92,_RNCNvXs_NtCsfvMbbOWyruA_5covrs6reportNtB6_13TextFormatterNtB6_15ReportFormatter6formats_0B8_
FN:41,_RNvMNtCsfvMbbOWyruA_5covrs6reportNtB2_18DiffCoverageReport15format_markdown
FN:29,_RNvMNtCsfvMbbOWyruA_5covrs6reportNtB2_18DiffCoverageReport6format
FN:185,_RNvNtCsfvMbbOWyruA_5covrs6report12build_report
FN:221,_RNvNtCsfvMbbOWyruA_5covrs6report18format_line_ranges
FN:123,_RNvXs0_NtCsfvMbbOWyruA_5covrs6reportNtB5_17MarkdownFormatterNtB5_15ReportFormatter6format
FN:56,_RNvXs_NtCsfvMbbOWyruA_5covrs6reportNtB4_13TextFormatterNtB4_15ReportFormatter6format
FNDA:0,_RNCNvNtCsdrsuGOUfnGV_5covrs6report12build_report0B5_
FNDA:0,_RNCNvNtCsdrsuGOUfnGV_5covrs6report12build_reports_0B5_
FNDA:0,_RNCNvXs0_NtCsdrsuGOUfnGV_5covrs6reportNtB7_17MarkdownFormatterNtB7_15ReportFormatter6format0B9_
FNDA:0,_RNCNvXs0_NtCsdrsuGOUfnGV_5covrs6reportNtB7_17MarkdownFormatterNtB7_15ReportFormatter6formats_0B9_
FNDA:0,_RNCNvXs_NtCsdrsuGOUfnGV_5covrs6reportNtB6_13TextFormatterNtB6_15ReportFormatter6format0B8_
FNDA:0,_RNCNvXs_NtCsdrsuGOUfnGV_5covrs6reportNtB6_13TextFormatterNtB6_15ReportFormatter6formats_0B8_
FNDA:0,_RNvMNtCsdrsuGOUfnGV_5covrs6reportNtB2_18DiffCoverageReport11format_text
FNDA:0,_RNvMNtCsdrsuGOUfnGV_5covrs6reportNtB2_18DiffCoverageReport15format_markdown
FNDA:0,_RNvMNtCsdrsuGOUfnGV_5covrs6reportNtB2_18DiffCoverageReport6format
FNDA:0,_RNvNtCsdrsuGOUfnGV_5covrs6report12build_report
FNDA:0,_RNvNtCsdrsuGOUfnGV_5covrs6report18format_line_ranges
FNDA:0,_RNvXs0_NtCsdrsuGOUfnGV_5covrs6reportNtB5_17MarkdownFormatterNtB5_15ReportFormatter6format
FNDA:0,_RNvXs_NtCsdrsuGOUfnGV_5covrs6reportNtB4_13TextFormatterNtB4_15ReportFormatter6format
FNDA:0,_RNvMNtCsfvMbbOWyruA_5covrs6reportNtB2_18DiffCoverageReport11format_text
FNDA:1,_RNvNtNtCsfvMbbOWyruA_5covrs6report5testss_22test_format_with_trait
FNDA:1,_RNvNtNtCsfvMbbOWyruA_5covrs6report5testss_29test_format_line_ranges_empty
FNDA:1,_RNvNtNtCsfvMbbOWyruA_5covrs6report5testss_29test_format_line_ranges_mixed
FNDA:1,_RNvNtNtCsfvMbbOWyruA_5covrs6report5testss_30test_format_line_ranges_single
FNDA:1,_RNvNtNtCsfvMbbOWyruA_5covrs6report5testss_32test_format_markdown_all_covered
FNDA:1,_RNvNtNtCsfvMbbOWyruA_5covrs6report5testss_32test_format_markdown_with_misses
FNDA:1,_RNvNtNtCsfvMbbOWyruA_5covrs6report5testss_35test_format_line_ranges_consecutive
FNDA:3,_RNCNvNtCsfvMbbOWyruA_5covrs6report12build_report0B5_
FNDA:1,_RNCNvNtCsfvMbbOWyruA_5covrs6report12build_reports_0B5_
FNDA:2,_RNCNvXs0_NtCsfvMbbOWyruA_5covrs6reportNtB7_17MarkdownFormatterNtB7_15ReportFormatter6format0B9_
FNDA:0,_RNCNvXs0_NtCsfvMbbOWyruA_5covrs6reportNtB7_17MarkdownFormatterNtB7_15ReportFormatter6formats_0B9_
FNDA:2,_RNCNvXs_NtCsfvMbbOWyruA_5covrs6reportNtB6_13TextFormatterNtB6_15ReportFormatter6format0B8_
FNDA:0,_RNCNvXs_NtCsfvMbbOWyruA_5covrs6reportNtB6_13TextFormatterNtB6_15ReportFormatter6formats_0B8_
FNDA:2,_RNvMNtCsfvMbbOWyruA_5covrs6reportNtB2_18DiffCoverageReport15format_markdown
FNDA:8,_RNvMNtCsfvMbbOWyruA_5covrs6reportNtB2_18DiffCoverageReport6format
FNDA:4,_RNvNtCsfvMbbOWyruA_5covrs6report12build_report
FNDA:9,_RNvNtCsfvMbbOWyruA_5covrs6report18format_line_ranges
FNDA:4,_RNvXs0_NtCsfvMbbOWyruA_5covrs6reportNtB5_17MarkdownFormatterNtB5_15ReportFormatter6format
FNDA:4,_RNvXs_NtCsfvMbbOWyruA_5covrs6reportNtB4_13TextFormatterNtB4_15ReportFormatter6format
FNF:20
FNH:17
DA:29,8
DA:30,8
DA:31,8
DA:35,0
DA:36,0
DA:37,0
DA:41,2
DA:42,2
DA:43,2
DA:56,4
DA:57,4
DA:59,4
DA:60,1
DA:61,1
DA:62,3
DA:64,3
DA:65,0
DA:66,0
DA:67,0
DA:68,0
DA:71,0
DA:72,0
DA:73,3
DA:75,3
DA:76,3
DA:77,3
DA:78,3
DA:79,3
DA:80,3
DA:81,3
DA:82,3
DA:85,3
DA:87,3
DA:88,3
DA:89,3
DA:90,3
DA:91,3
DA:92,3
DA:93,3
DA:94,2
DA:95,2
DA:96,2
DA:97,2
DA:98,2
DA:99,2
DA:100,2
DA:101,2
DA:102,2
DA:103,2
DA:104,2
DA:105,2
DA:106,2
DA:107,1
DA:109,3
DA:110,2
DA:111,2
DA:112,2
DA:113,2
DA:115,3
DA:116,4
DA:123,4
DA:124,4
DA:126,4
DA:127,4
DA:128,4
DA:129,4
DA:131,4
DA:133,4
DA:134,4
DA:135,4
DA:136,4
DA:137,2
DA:138,2
DA:139,2
DA:140,4
DA:142,4
DA:143,4
DA:144,4
DA:145,4
DA:146,4
DA:147,4
DA:149,4
DA:150,2
DA:151,2
DA:152,2
DA:153,2
DA:155,2
DA:156,2
DA:157,2
DA:158,2
DA:159,2
DA:160,2
DA:162,2
DA:164,2
DA:165,2
DA:166,2
DA:167,2
DA:168,2
DA:170,2
DA:173,4
DA:174,4
DA:175,2
DA:176,2
DA:177,2
DA:178,4
DA:180,4
DA:181,4
DA:185,4
DA:186,4
DA:187,4
DA:188,4
DA:189,4
DA:190,4
DA:191,4
DA:193,4
DA:194,1
DA:196,3
DA:199,4
DA:200,4
DA:201,0
DA:202,0
DA:203,0
DA:204,0
DA:209,4
DA:210,4
DA:211,4
DA:212,4
DA:213,4
DA:214,4
DA:215,4
DA:217,4
DA:221,9
DA:222,9
DA:223,1
DA:224,8
DA:226,8
DA:227,8
DA:228,8
DA:230,10
DA:231,10
DA:232,8
DA:233,8
DA:234,2
DA:235,1
DA:236,1
DA:237,1
DA:238,1
DA:239,2
DA:240,2
DA:244,8
DA:245,3
DA:246,5
DA:247,5
DA:248,5
DA:250,8
DA:251,9
DA:258,1
DA:259,1
DA:260,1
DA:263,1
DA:264,1
DA:265,1
DA:268,1
DA:269,1
DA:270,1
DA:273,1
DA:274,1
DA:275,1
DA:278,1
DA:279,1
DA:280,1
DA:281,1
DA:282,1
DA:283,1
DA:284,1
DA:285,1
DA:286,1
DA:287,1
DA:288,1
DA:289,1
DA:290,1
DA:291,1
DA:292,1
DA:293,1
DA:294,1
DA:297,1
DA:298,1
DA:299,1
DA:300,1
DA:301,1
DA:302,1
DA:303,1
DA:304,1
DA:305,1
DA:306,1
DA:307,1
DA:308,1
DA:309,1
DA:310,1
DA:311,1
DA:312,1
DA:313,1
DA:314,1
DA:315,1
DA:316,1
DA:319,1
DA:320,1
DA:321,1
DA:322,1
DA:323,1
DA:324,1
DA:325,1
DA:326,1
DA:327,1
DA:328,1
DA:331,1
DA:332,1
DA:334,1
DA:335,1
DA:336,1
BRF:0
BRH:0
LF:226
LH:211
end_of_record